target datalayout = "e-m:e-p270:32:32-p271:32:32-p272:64:64-i64:64-i128:128-f80:128-n8:16:32:64-S128"
target triple = "x86_64-pc-linux-gnu"

; Function Attrs: null_pointer_is_valid sspstrong uwtable
define internal i32 @get_ocp1_message_len(ptr noundef %0, ptr noundef %1, i32 noundef %2, ptr noundef %3) #0 {
  %5 = alloca ptr, align 8
  %6 = alloca ptr, align 8
  %7 = alloca i32, align 4
  %8 = alloca ptr, align 8
  %9 = alloca i8, align 1
  %10 = alloca i32, align 4
  %11 = alloca i32, align 4
  store ptr %0, ptr %5, align 8
  store ptr %1, ptr %6, align 8
  store i32 %2, ptr %7, align 4
  store ptr %3, ptr %8, align 8
  call void @llvm.lifetime.start.p0(i64 1, ptr %9) #9
  store i8 1, ptr %9, align 1
  call void @llvm.lifetime.start.p0(i64 4, ptr %10) #9
  store i32 0, ptr %10, align 4
  br label %12

12:                                               ; preds = %34, %4
  %13 = load i8, ptr %9, align 1, !range !8, !noundef !9
  %14 = trunc i8 %13 to i1
  br i1 %14, label %15, label %38

15:                                               ; preds = %12
  call void @llvm.lifetime.start.p0(i64 4, ptr %11) #9
  %16 = load ptr, ptr %6, align 8
  %17 = load i32, ptr %7, align 4
  %18 = add i32 %17, 3
  %19 = call i32 @tvb_get_uint32(ptr noundef %16, i32 noundef %18, i32 noundef 0)
  %20 = add i32 %19, 1
  store i32 %20, ptr %11, align 4
  %21 = load i32, ptr %11, align 4
  %22 = load i32, ptr %10, align 4
  %23 = add i32 %22, %21
  store i32 %23, ptr %10, align 4
  %24 = load ptr, ptr %6, align 8
  %25 = load i32, ptr %7, align 4
  %26 = load i32, ptr %11, align 4
  %27 = add i32 %25, %26
  %28 = call i32 @tvb_captured_length_remaining(ptr noundef %24, i32 noundef %27)
  %29 = icmp sge i32 %28, 11
  br i1 %29, label %30, label %33

30:                                               ; preds = %15
  %31 = load i32, ptr %11, align 4
  %32 = icmp ult i32 %31, 9
  br i1 %32, label %33, label %34

33:                                               ; preds = %30, %15
  store i8 0, ptr %9, align 1
  br label %34

34:                                               ; preds = %33, %30
  %35 = load i32, ptr %11, align 4
  %36 = load i32, ptr %7, align 4
  %37 = add i32 %36, %35
  store i32 %37, ptr %7, align 4
  call void @llvm.lifetime.end.p0(i64 4, ptr %11) #9
  br label %12, !llvm.loop !10

38:                                               ; preds = %12
  %39 = load i32, ptr %10, align 4
  call void @llvm.lifetime.end.p0(i64 4, ptr %10) #9
  call void @llvm.lifetime.end.p0(i64 1, ptr %9) #9
  ret i32 %39
}