; Function Attrs: null_pointer_is_valid sspstrong uwtable
define internal i32 @get_ocp1_message_len(ptr readnone captures(none) %0, ptr noundef %1, i32 noundef %2, ptr readnone captures(none) %3) #0 {
  br label %5

5:                                                ; preds = %4, %5
  %.016 = phi i32 [ %2, %4 ], [ %10, %5 ]
  %.01215 = phi i32 [ 0, %4 ], [ %9, %5 ]
  %6 = add i32 %.016, 3
  %7 = tail call i32 @tvb_get_uint32(ptr noundef %1, i32 noundef %6, i32 noundef 0)
  %8 = add i32 %7, 1
  %9 = add i32 %8, %.01215
  %10 = add i32 %8, %.016
  %11 = tail call i32 @tvb_captured_length_remaining(ptr noundef %1, i32 noundef %10)
  %12 = icmp sgt i32 %11, 10
  %13 = icmp ugt i32 %8, 8
  %or.cond.not = and i1 %12, %13
  br i1 %or.cond.not, label %5, label %14, !llvm.loop !11

14:                                               ; preds = %5
  ret i32 %9
}